; Function Attrs: mustprogress uwtable
define internal void @_ZN12_GLOBAL__N_151gtest_AllLogUniformIntChiSquaredTest_EvalGenerator_Ev(ptr noalias sret(%"class.testing::internal::ParamGenerator") align 8 %agg.result) #4 personality ptr @__gxx_personality_v0 {
entry:
  %ref.tmp = alloca %"class.std::vector.65", align 8
  call fastcc void @_ZN12_GLOBAL__N_19GenParamsEv(ptr noalias nonnull align 8 %ref.tmp)
  %0 = load ptr, ptr %ref.tmp, align 8
  %_M_finish.i.i = getelementptr inbounds i8, ptr %ref.tmp, i64 8
  %1 = load ptr, ptr %_M_finish.i.i, align 8, !noalias !7
  invoke void @_ZN7testing8ValuesInIN9__gnu_cxx17__normal_iteratorIPKN4absl28log_uniform_int_distributionIiE10param_typeESt6vectorIS6_SaIS6_EEEEEENS_8internal14ParamGeneratorINSt15iterator_traitsIT_E10value_typeEEESG_SG_(ptr sret(%"class.testing::internal::ParamGenerator") align 8 %agg.result, ptr %0, ptr %1)
          to label %invoke.cont unwind label %lpad

invoke.cont:                                      ; preds = %entry
  %tobool.not.i.i.i = icmp eq ptr %0, null
  br i1 %tobool.not.i.i.i, label %_ZNSt6vectorIN4absl28log_uniform_int_distributionIiE10param_typeESaIS3_EED2Ev.exit, label %if.then.i.i.i

if.then.i.i.i:                                    ; preds = %invoke.cont
  tail call void @_ZdlPv(ptr noundef nonnull %0) #28
  br label %_ZNSt6vectorIN4absl28log_uniform_int_distributionIiE10param_typeESaIS3_EED2Ev.exit

_ZNSt6vectorIN4absl28log_uniform_int_distributionIiE10param_typeESaIS3_EED2Ev.exit: ; preds = %invoke.cont, %if.then.i.i.i
  ret void

lpad:                                             ; preds = %entry
  %2 = landingpad { ptr, i32 }
          cleanup
  %tobool.not.i.i.i1 = icmp eq ptr %0, null
  br i1 %tobool.not.i.i.i1, label %_ZNSt6vectorIN4absl28log_uniform_int_distributionIiE10param_typeESaIS3_EED2Ev.exit3, label %if.then.i.i.i2

if.then.i.i.i2:                                   ; preds = %lpad
  tail call void @_ZdlPv(ptr noundef nonnull %0) #28
  br label %_ZNSt6vectorIN4absl28log_uniform_int_distributionIiE10param_typeESaIS3_EED2Ev.exit3

_ZNSt6vectorIN4absl28log_uniform_int_distributionIiE10param_typeESaIS3_EED2Ev.exit3: ; preds = %lpad, %if.then.i.i.i2
  resume { ptr, i32 } %2
}